; Function Attrs: mustprogress nounwind uwtable
define hidden void @_ZN4DictC2EPFiPKvS1_EPFiS1_EP5Arenai(ptr nocapture noundef nonnull align 8 dereferenceable(40) %0, ptr noundef %1, ptr noundef %2, ptr noundef %3, i32 noundef %4) unnamed_addr #0 align 2 {
  store ptr %3, ptr %0, align 8
  %6 = getelementptr inbounds i8, ptr %0, i64 24
  store ptr %2, ptr %6, align 8
  %7 = getelementptr inbounds i8, ptr %0, i64 32
  store ptr %1, ptr %7, align 8
  %8 = icmp sgt i32 %4, 0
  %9 = add nuw i32 %4, 2147483647
  %10 = and i32 %9, %4
  %11 = icmp eq i32 %10, 0
  %12 = select i1 %8, i1 %11, i1 false
  %13 = tail call range(i32 0, 33) i32 @llvm.ctlz.i32(i32 %4, i1 true)
  %14 = sub nuw nsw i32 32, %13
  %15 = shl nuw i32 1, %14
  %.0.i = select i1 %12, i32 %4, i32 %15
  %16 = tail call noundef i32 @llvm.smax.i32(i32 %.0.i, i32 16)
  %17 = getelementptr inbounds i8, ptr %0, i64 16
  store i32 %16, ptr %17, align 8
  %18 = getelementptr inbounds i8, ptr %0, i64 20
  store i32 0, ptr %18, align 4
  %19 = zext nneg i32 %16 to i64
  %20 = shl nuw nsw i64 %19, 4
  %21 = getelementptr inbounds i8, ptr %3, i64 40
  %22 = load ptr, ptr %21, align 8
  %23 = getelementptr inbounds i8, ptr %3, i64 32
  %24 = load ptr, ptr %23, align 8
  %25 = ptrtoint ptr %22 to i64
  %26 = ptrtoint ptr %24 to i64
  %27 = sub i64 %25, %26
  %.not.i.i = icmp ult i64 %27, %20
  br i1 %.not.i.i, label %30, label %28

28:                                               ; preds = %5
  %29 = getelementptr inbounds i8, ptr %24, i64 %20
  store ptr %29, ptr %23, align 8
  br label %_ZN5Arena12AmallocWordsEmN17AllocFailStrategy13AllocFailEnumE.exit

30:                                               ; preds = %5
  %31 = tail call noundef ptr @_ZN5Arena4growEmN17AllocFailStrategy13AllocFailEnumE(ptr noundef nonnull align 8 dereferenceable(48) %3, i64 noundef %20, i32 noundef 0) #11
  br label %_ZN5Arena12AmallocWordsEmN17AllocFailStrategy13AllocFailEnumE.exit

_ZN5Arena12AmallocWordsEmN17AllocFailStrategy13AllocFailEnumE.exit: ; preds = %28, %30
  %.0.i.i = phi ptr [ %24, %28 ], [ %31, %30 ]
  %32 = getelementptr inbounds i8, ptr %0, i64 8
  store ptr %.0.i.i, ptr %32, align 8
  %33 = load i32, ptr %17, align 8
  %34 = zext i32 %33 to i64
  %35 = shl nuw nsw i64 %34, 4
  tail call void @llvm.memset.p0.i64(ptr align 1 %.0.i.i, i8 0, i64 %35, i1 false)
  ret void
}